; Function Attrs: nounwind uwtable
define double @glfwGetTime() local_unnamed_addr #0 {
  %1 = load i32, ptr @_glfw, align 8, !tbaa !170
  %.not = icmp eq i32 %1, 0
  br i1 %.not, label %2, label %3

2:                                                ; preds = %0
  tail call void (i32, ptr, ...) @_glfwInputError(i32 noundef 65537, ptr noundef null) #12
  br label %11

3:                                                ; preds = %0
  %4 = tail call i64 @_glfwPlatformGetTimerValue() #12
  %5 = load i64, ptr getelementptr inbounds nuw (i8, ptr @_glfw, i64 133472), align 8, !tbaa !205
  %6 = sub i64 %4, %5
  %7 = uitofp i64 %6 to double
  %8 = tail call i64 @_glfwPlatformGetTimerFrequency() #12
  %9 = uitofp i64 %8 to double
  %10 = fdiv double %7, %9
  br label %11

11:                                               ; preds = %3, %2
  %.0 = phi double [ %10, %3 ], [ 0.000000e+00, %2 ]
  ret double %.0
}